target datalayout = "e-m:e-p270:32:32-p271:32:32-p272:64:64-i64:64-i128:128-f80:128-n8:16:32:64-S128"
target triple = "x86_64-pc-linux-gnu"

%struct.Ses_Store_t_ = type { i32, i32, i32, i32, i32, i32, [1024 x ptr], ptr, ptr, ptr, i64, [9 x i64], i64, [9 x i64], i64, [9 x i64], i64, [9 x i64], i64, [9 x i64], i64, [9 x i64], i64, [9 x i64], i64, i64, i64, i64, i64, i64, i64, i64, i64, i64 }
%struct.Ses_TruthEntry_t_ = type { [4 x i64], i32, ptr, ptr }
%struct.Ses_TimesEntry_t_ = type { [8 x i32], i32, ptr, ptr }

@Ses_StoreTableHash.s_Primes = internal global [4 x i32] [i32 1291, i32 1699, i32 1999, i32 2357], align 16

; Function Attrs: inlinehint nounwind uwtable
define internal i32 @Abc_TtWordNum(i32 noundef %0) #2 {
  %2 = alloca i32, align 4
  store i32 %0, ptr %2, align 4, !tbaa !10
  %3 = load i32, ptr %2, align 4, !tbaa !10
  %4 = icmp sle i32 %3, 6
  br i1 %4, label %5, label %6

5:                                                ; preds = %1
  br label %10

6:                                                ; preds = %1
  %7 = load i32, ptr %2, align 4, !tbaa !10
  %8 = sub nsw i32 %7, 6
  %9 = shl i32 1, %8
  br label %10

10:                                               ; preds = %6, %5
  %11 = phi i32 [ 1, %5 ], [ %9, %6 ]
  ret i32 %11
}

; Function Attrs: inlinehint nounwind uwtable
define internal i32 @Ses_StoreTimesEqual(ptr noundef %0, ptr noundef %1, i32 noundef %2) #2 {
  %4 = alloca i32, align 4
  %5 = alloca ptr, align 8
  %6 = alloca ptr, align 8
  %7 = alloca i32, align 4
  %8 = alloca i32, align 4
  %9 = alloca i32, align 4
  store ptr %0, ptr %5, align 8, !tbaa !12
  store ptr %1, ptr %6, align 8, !tbaa !12
  store i32 %2, ptr %7, align 4, !tbaa !10
  call void @llvm.lifetime.start.p0(i64 4, ptr %8) #14
  store i32 0, ptr %8, align 4, !tbaa !10
  br label %10

10:                                               ; preds = %28, %3
  %11 = load i32, ptr %8, align 4, !tbaa !10
  %12 = load i32, ptr %7, align 4, !tbaa !10
  %13 = icmp slt i32 %11, %12
  br i1 %13, label %14, label %31

14:                                               ; preds = %10
  %15 = load ptr, ptr %5, align 8, !tbaa !12
  %16 = load i32, ptr %8, align 4, !tbaa !10
  %17 = sext i32 %16 to i64
  %18 = getelementptr inbounds i32, ptr %15, i64 %17
  %19 = load i32, ptr %18, align 4, !tbaa !10
  %20 = load ptr, ptr %6, align 8, !tbaa !12
  %21 = load i32, ptr %8, align 4, !tbaa !10
  %22 = sext i32 %21 to i64
  %23 = getelementptr inbounds i32, ptr %20, i64 %22
  %24 = load i32, ptr %23, align 4, !tbaa !10
  %25 = icmp ne i32 %19, %24
  br i1 %25, label %26, label %27

26:                                               ; preds = %14
  store i32 0, ptr %4, align 4
  store i32 1, ptr %9, align 4
  br label %32

27:                                               ; preds = %14
  br label %28

28:                                               ; preds = %27
  %29 = load i32, ptr %8, align 4, !tbaa !10
  %30 = add nsw i32 %29, 1
  store i32 %30, ptr %8, align 4, !tbaa !10
  br label %10, !llvm.loop !52

31:                                               ; preds = %10
  store i32 1, ptr %4, align 4
  store i32 1, ptr %9, align 4
  br label %32

32:                                               ; preds = %31, %26
  call void @llvm.lifetime.end.p0(i64 4, ptr %8) #14
  %33 = load i32, ptr %4, align 4
  ret i32 %33
}

; Function Attrs: inlinehint nounwind uwtable
define internal i32 @Ses_StoreTruthEqual(ptr noundef %0, ptr noundef %1, i32 noundef %2) #2 {
  %4 = alloca i32, align 4
  %5 = alloca ptr, align 8
  %6 = alloca ptr, align 8
  %7 = alloca i32, align 4
  %8 = alloca i32, align 4
  %9 = alloca i32, align 4
  store ptr %0, ptr %5, align 8, !tbaa !16
  store ptr %1, ptr %6, align 8, !tbaa !8
  store i32 %2, ptr %7, align 4, !tbaa !10
  call void @llvm.lifetime.start.p0(i64 4, ptr %8) #14
  %10 = load ptr, ptr %5, align 8, !tbaa !16
  %11 = getelementptr inbounds nuw %struct.Ses_TruthEntry_t_, ptr %10, i32 0, i32 1
  %12 = load i32, ptr %11, align 8, !tbaa !49
  %13 = load i32, ptr %7, align 4, !tbaa !10
  %14 = icmp ne i32 %12, %13
  br i1 %14, label %15, label %16

15:                                               ; preds = %3
  store i32 0, ptr %4, align 4
  store i32 1, ptr %9, align 4
  br label %41

16:                                               ; preds = %3
  store i32 0, ptr %8, align 4, !tbaa !10
  br label %17

17:                                               ; preds = %37, %16
  %18 = load i32, ptr %8, align 4, !tbaa !10
  %19 = load i32, ptr %7, align 4, !tbaa !10
  %20 = call i32 @Abc_TtWordNum(i32 noundef %19)
  %21 = icmp slt i32 %18, %20
  br i1 %21, label %22, label %40

22:                                               ; preds = %17
  %23 = load ptr, ptr %5, align 8, !tbaa !16
  %24 = getelementptr inbounds nuw %struct.Ses_TruthEntry_t_, ptr %23, i32 0, i32 0
  %25 = load i32, ptr %8, align 4, !tbaa !10
  %26 = sext i32 %25 to i64
  %27 = getelementptr inbounds [4 x i64], ptr %24, i64 0, i64 %26
  %28 = load i64, ptr %27, align 8, !tbaa !37
  %29 = load ptr, ptr %6, align 8, !tbaa !8
  %30 = load i32, ptr %8, align 4, !tbaa !10
  %31 = sext i32 %30 to i64
  %32 = getelementptr inbounds i64, ptr %29, i64 %31
  %33 = load i64, ptr %32, align 8, !tbaa !37
  %34 = icmp ne i64 %28, %33
  br i1 %34, label %35, label %36

35:                                               ; preds = %22
  store i32 0, ptr %4, align 4
  store i32 1, ptr %9, align 4
  br label %41

36:                                               ; preds = %22
  br label %37

37:                                               ; preds = %36
  %38 = load i32, ptr %8, align 4, !tbaa !10
  %39 = add nsw i32 %38, 1
  store i32 %39, ptr %8, align 4, !tbaa !10
  br label %17, !llvm.loop !50

40:                                               ; preds = %17
  store i32 1, ptr %4, align 4
  store i32 1, ptr %9, align 4
  br label %41

41:                                               ; preds = %40, %35, %15
  call void @llvm.lifetime.end.p0(i64 4, ptr %8) #14
  %42 = load i32, ptr %4, align 4
  ret i32 %42
}

; Function Attrs: inlinehint nounwind uwtable
define internal i32 @Ses_StoreTableHash(ptr noundef %0, i32 noundef %1) #2 {
  %3 = alloca ptr, align 8
  %4 = alloca i32, align 4
  %5 = alloca i32, align 4
  %6 = alloca i32, align 4
  store ptr %0, ptr %3, align 8, !tbaa !8
  store i32 %1, ptr %4, align 4, !tbaa !10
  call void @llvm.lifetime.start.p0(i64 4, ptr %5) #14
  call void @llvm.lifetime.start.p0(i64 4, ptr %6) #14
  store i32 0, ptr %6, align 4, !tbaa !10
  store i32 0, ptr %5, align 4, !tbaa !10
  br label %7

7:                                                ; preds = %29, %2
  %8 = load i32, ptr %5, align 4, !tbaa !10
  %9 = load i32, ptr %4, align 4, !tbaa !10
  %10 = call i32 @Abc_TtWordNum(i32 noundef %9)
  %11 = icmp slt i32 %8, %10
  br i1 %11, label %12, label %32

12:                                               ; preds = %7
  %13 = load ptr, ptr %3, align 8, !tbaa !8
  %14 = load i32, ptr %5, align 4, !tbaa !10
  %15 = sext i32 %14 to i64
  %16 = getelementptr inbounds i64, ptr %13, i64 %15
  %17 = load i64, ptr %16, align 8, !tbaa !37
  %18 = load i32, ptr %5, align 4, !tbaa !10
  %19 = and i32 %18, 15
  %20 = sext i32 %19 to i64
  %21 = getelementptr inbounds [4 x i32], ptr @Ses_StoreTableHash.s_Primes, i64 0, i64 %20
  %22 = load i32, ptr %21, align 4, !tbaa !10
  %23 = sext i32 %22 to i64
  %24 = mul i64 %17, %23
  %25 = load i32, ptr %6, align 4, !tbaa !10
  %26 = zext i32 %25 to i64
  %27 = xor i64 %26, %24
  %28 = trunc i64 %27 to i32
  store i32 %28, ptr %6, align 4, !tbaa !10
  br label %29

29:                                               ; preds = %12
  %30 = load i32, ptr %5, align 4, !tbaa !10
  %31 = add nsw i32 %30, 1
  store i32 %31, ptr %5, align 4, !tbaa !10
  br label %7, !llvm.loop !48

32:                                               ; preds = %7
  %33 = load i32, ptr %6, align 4, !tbaa !10
  %34 = urem i32 %33, 1024
  call void @llvm.lifetime.end.p0(i64 4, ptr %6) #14
  call void @llvm.lifetime.end.p0(i64 4, ptr %5) #14
  ret i32 %34
}

; Function Attrs: nounwind uwtable
define i32 @Ses_StoreGetEntrySimple(ptr noundef %0, ptr noundef %1, i32 noundef %2, ptr noundef %3, ptr noundef %4) #0 {
  %6 = alloca i32, align 4
  %7 = alloca ptr, align 8
  %8 = alloca ptr, align 8
  %9 = alloca i32, align 4
  %10 = alloca ptr, align 8
  %11 = alloca ptr, align 8
  %12 = alloca i32, align 4
  %13 = alloca ptr, align 8
  %14 = alloca ptr, align 8
  %15 = alloca i32, align 4
  store ptr %0, ptr %7, align 8, !tbaa !3
  store ptr %1, ptr %8, align 8, !tbaa !8
  store i32 %2, ptr %9, align 4, !tbaa !10
  store ptr %3, ptr %10, align 8, !tbaa !12
  store ptr %4, ptr %11, align 8, !tbaa !58
  call void @llvm.lifetime.start.p0(i64 4, ptr %12) #14
  call void @llvm.lifetime.start.p0(i64 8, ptr %13) #14
  call void @llvm.lifetime.start.p0(i64 8, ptr %14) #14
  %16 = load ptr, ptr %8, align 8, !tbaa !8
  %17 = load i32, ptr %9, align 4, !tbaa !10
  %18 = call i32 @Ses_StoreTableHash(ptr noundef %16, i32 noundef %17)
  store i32 %18, ptr %12, align 4, !tbaa !10
  %19 = load ptr, ptr %7, align 8, !tbaa !3
  %20 = getelementptr inbounds nuw %struct.Ses_Store_t_, ptr %19, i32 0, i32 6
  %21 = load i32, ptr %12, align 4, !tbaa !10
  %22 = sext i32 %21 to i64
  %23 = getelementptr inbounds [1024 x ptr], ptr %20, i64 0, i64 %22
  %24 = load ptr, ptr %23, align 8, !tbaa !16
  store ptr %24, ptr %13, align 8, !tbaa !16
  br label %25

25:                                               ; preds = %39, %5
  %26 = load ptr, ptr %13, align 8, !tbaa !16
  %27 = icmp ne ptr %26, null
  br i1 %27, label %28, label %40

28:                                               ; preds = %25
  %29 = load ptr, ptr %13, align 8, !tbaa !16
  %30 = load ptr, ptr %8, align 8, !tbaa !8
  %31 = load i32, ptr %9, align 4, !tbaa !10
  %32 = call i32 @Ses_StoreTruthEqual(ptr noundef %29, ptr noundef %30, i32 noundef %31)
  %33 = icmp ne i32 %32, 0
  br i1 %33, label %34, label %35

34:                                               ; preds = %28
  br label %40

35:                                               ; preds = %28
  %36 = load ptr, ptr %13, align 8, !tbaa !16
  %37 = getelementptr inbounds nuw %struct.Ses_TruthEntry_t_, ptr %36, i32 0, i32 2
  %38 = load ptr, ptr %37, align 8, !tbaa !18
  store ptr %38, ptr %13, align 8, !tbaa !16
  br label %39

39:                                               ; preds = %35
  br label %25, !llvm.loop !60

40:                                               ; preds = %34, %25
  %41 = load ptr, ptr %13, align 8, !tbaa !16
  %42 = icmp ne ptr %41, null
  br i1 %42, label %44, label %43

43:                                               ; preds = %40
  store i32 0, ptr %6, align 4
  store i32 1, ptr %15, align 4
  br label %74

44:                                               ; preds = %40
  %45 = load ptr, ptr %13, align 8, !tbaa !16
  %46 = getelementptr inbounds nuw %struct.Ses_TruthEntry_t_, ptr %45, i32 0, i32 3
  %47 = load ptr, ptr %46, align 8, !tbaa !23
  store ptr %47, ptr %14, align 8, !tbaa !24
  br label %48

48:                                               ; preds = %64, %44
  %49 = load ptr, ptr %14, align 8, !tbaa !24
  %50 = icmp ne ptr %49, null
  br i1 %50, label %51, label %65

51:                                               ; preds = %48
  %52 = load ptr, ptr %10, align 8, !tbaa !12
  %53 = load ptr, ptr %14, align 8, !tbaa !24
  %54 = getelementptr inbounds nuw %struct.Ses_TimesEntry_t_, ptr %53, i32 0, i32 0
  %55 = getelementptr inbounds [8 x i32], ptr %54, i64 0, i64 0
  %56 = load i32, ptr %9, align 4, !tbaa !10
  %57 = call i32 @Ses_StoreTimesEqual(ptr noundef %52, ptr noundef %55, i32 noundef %56)
  %58 = icmp ne i32 %57, 0
  br i1 %58, label %59, label %60

59:                                               ; preds = %51
  br label %65

60:                                               ; preds = %51
  %61 = load ptr, ptr %14, align 8, !tbaa !24
  %62 = getelementptr inbounds nuw %struct.Ses_TimesEntry_t_, ptr %61, i32 0, i32 2
  %63 = load ptr, ptr %62, align 8, !tbaa !25
  store ptr %63, ptr %14, align 8, !tbaa !24
  br label %64

64:                                               ; preds = %60
  br label %48, !llvm.loop !61

65:                                               ; preds = %59, %48
  %66 = load ptr, ptr %14, align 8, !tbaa !24
  %67 = icmp ne ptr %66, null
  br i1 %67, label %69, label %68

68:                                               ; preds = %65
  store i32 0, ptr %6, align 4
  store i32 1, ptr %15, align 4
  br label %74

69:                                               ; preds = %65
  %70 = load ptr, ptr %14, align 8, !tbaa !24
  %71 = getelementptr inbounds nuw %struct.Ses_TimesEntry_t_, ptr %70, i32 0, i32 3
  %72 = load ptr, ptr %71, align 8, !tbaa !28
  %73 = load ptr, ptr %11, align 8, !tbaa !58
  store ptr %72, ptr %73, align 8, !tbaa !14
  store i32 1, ptr %6, align 4
  store i32 1, ptr %15, align 4
  br label %74

74:                                               ; preds = %69, %68, %43
  call void @llvm.lifetime.end.p0(i64 8, ptr %14) #14
  call void @llvm.lifetime.end.p0(i64 8, ptr %13) #14
  call void @llvm.lifetime.end.p0(i64 4, ptr %12) #14
  %75 = load i32, ptr %6, align 4
  ret i32 %75
}