; Function Attrs: nofree norecurse nosync nounwind memory(read, argmem: readwrite, inaccessiblemem: none) uwtable
define range(i32 0, 2) i32 @Ses_StoreGetEntrySimple(ptr noundef readonly captures(none) %0, ptr noundef readonly captures(none) %1, i32 noundef %2, ptr noundef readonly captures(none) %3, ptr noundef writeonly captures(none) %4) local_unnamed_addr #4 {
  %6 = icmp slt i32 %2, 7
  %7 = add nsw i32 %2, -6
  %8 = shl nuw i32 1, %7
  %9 = select i1 %6, i32 1, i32 %8
  %10 = icmp sgt i32 %9, 0
  br i1 %10, label %.lr.ph.preheader.i, label %Ses_StoreTableHash.exit.thread

.lr.ph.preheader.i:                               ; preds = %5
  %wide.trip.count.i = zext nneg i32 %9 to i64
  br label %.lr.ph.i

.lr.ph.i:                                         ; preds = %.lr.ph.i, %.lr.ph.preheader.i
  %indvars.iv.i = phi i64 [ 0, %.lr.ph.preheader.i ], [ %indvars.iv.next.i, %.lr.ph.i ]
  %.09.i = phi i32 [ 0, %.lr.ph.preheader.i ], [ %18, %.lr.ph.i ]
  %11 = getelementptr inbounds nuw i64, ptr %1, i64 %indvars.iv.i
  %12 = load i64, ptr %11, align 8, !tbaa !3
  %13 = and i64 %indvars.iv.i, 15
  %14 = getelementptr inbounds nuw [4 x i32], ptr @Ses_StoreTableHash.s_Primes, i64 0, i64 %13
  %15 = load i32, ptr %14, align 4, !tbaa !7
  %16 = trunc i64 %12 to i32
  %17 = mul i32 %15, %16
  %18 = xor i32 %17, %.09.i
  %indvars.iv.next.i = add nuw nsw i64 %indvars.iv.i, 1
  %exitcond.not.i = icmp eq i64 %indvars.iv.next.i, %wide.trip.count.i
  br i1 %exitcond.not.i, label %Ses_StoreTableHash.exit, label %.lr.ph.i, !llvm.loop !9

Ses_StoreTableHash.exit:                          ; preds = %.lr.ph.i
  %19 = and i32 %18, 1023
  %20 = zext nneg i32 %19 to i64
  %21 = getelementptr inbounds nuw i8, ptr %0, i64 24
  %22 = getelementptr inbounds nuw [1024 x ptr], ptr %21, i64 0, i64 %20
  %.01954 = load ptr, ptr %22, align 8, !tbaa !11
  %.not55 = icmp eq ptr %.01954, null
  br i1 %.not55, label %.critedge, label %.lr.ph

Ses_StoreTableHash.exit.thread:                   ; preds = %5
  %23 = getelementptr inbounds nuw i8, ptr %0, i64 24
  %.0195469 = load ptr, ptr %23, align 8, !tbaa !11
  %.not5570 = icmp eq ptr %.0195469, null
  br i1 %.not5570, label %.critedge, label %.lr.ph.split

.lr.ph:                                           ; preds = %Ses_StoreTableHash.exit
  %wide.trip.count.i28 = zext nneg i32 %9 to i64
  br label %.lr.ph.split.us

.lr.ph.split.us:                                  ; preds = %.lr.ph, %.loopexit45.us
  %.01956.us = phi ptr [ %.019.us, %.loopexit45.us ], [ %.01954, %.lr.ph ]
  %24 = getelementptr inbounds nuw i8, ptr %.01956.us, i64 32
  %25 = load i32, ptr %24, align 8, !tbaa !14
  %.not.i.us = icmp eq i32 %25, %2
  br i1 %.not.i.us, label %.lr.ph.i29.us, label %.loopexit45.us

.lr.ph.i29.us:                                    ; preds = %.lr.ph.split.us, %31
  %indvars.iv.i30.us = phi i64 [ %indvars.iv.next.i31.us, %31 ], [ 0, %.lr.ph.split.us ]
  %26 = getelementptr inbounds nuw [4 x i64], ptr %.01956.us, i64 0, i64 %indvars.iv.i30.us
  %27 = load i64, ptr %26, align 8, !tbaa !3
  %28 = getelementptr inbounds nuw i64, ptr %1, i64 %indvars.iv.i30.us
  %29 = load i64, ptr %28, align 8, !tbaa !3
  %.not11.i.us = icmp eq i64 %27, %29
  br i1 %.not11.i.us, label %31, label %.loopexit45.us

.loopexit45.us:                                   ; preds = %.lr.ph.i29.us, %.lr.ph.split.us
  %30 = getelementptr inbounds nuw i8, ptr %.01956.us, i64 40
  %.019.us = load ptr, ptr %30, align 8, !tbaa !11
  %.not.us = icmp eq ptr %.019.us, null
  br i1 %.not.us, label %.critedge, label %.lr.ph.split.us, !llvm.loop !53

31:                                               ; preds = %.lr.ph.i29.us
  %indvars.iv.next.i31.us = add nuw nsw i64 %indvars.iv.i30.us, 1
  %exitcond.not.i32.us = icmp eq i64 %indvars.iv.next.i31.us, %wide.trip.count.i28
  br i1 %exitcond.not.i32.us, label %Ses_StoreTruthEqual.exit, label %.lr.ph.i29.us, !llvm.loop !18

.lr.ph.split:                                     ; preds = %Ses_StoreTableHash.exit.thread, %34
  %.01956 = phi ptr [ %.019, %34 ], [ %.0195469, %Ses_StoreTableHash.exit.thread ]
  %32 = getelementptr inbounds nuw i8, ptr %.01956, i64 32
  %33 = load i32, ptr %32, align 8, !tbaa !14
  %.not.i = icmp eq i32 %33, %2
  br i1 %.not.i, label %Ses_StoreTruthEqual.exit, label %34

34:                                               ; preds = %.lr.ph.split
  %35 = getelementptr inbounds nuw i8, ptr %.01956, i64 40
  %.019 = load ptr, ptr %35, align 8, !tbaa !11
  %.not = icmp eq ptr %.019, null
  br i1 %.not, label %.critedge, label %.lr.ph.split, !llvm.loop !53

Ses_StoreTruthEqual.exit:                         ; preds = %.lr.ph.split, %31
  %.01953 = phi ptr [ %.01956.us, %31 ], [ %.01956, %.lr.ph.split ]
  %36 = getelementptr inbounds nuw i8, ptr %.01953, i64 48
  %.058 = load ptr, ptr %36, align 8, !tbaa !20
  %.not2259 = icmp eq ptr %.058, null
  br i1 %.not2259, label %.critedge, label %.lr.ph61

.lr.ph61:                                         ; preds = %Ses_StoreTruthEqual.exit
  %37 = icmp sgt i32 %2, 0
  %wide.trip.count.i34 = zext nneg i32 %2 to i64
  br i1 %37, label %.lr.ph.preheader.i33.us, label %.loopexit

.lr.ph.preheader.i33.us:                          ; preds = %.lr.ph61, %Ses_StoreTimesEqual.exit.us
  %.060.us = phi ptr [ %.0.us, %Ses_StoreTimesEqual.exit.us ], [ %.058, %.lr.ph61 ]
  br label %.lr.ph.i35.us

.lr.ph.i35.us:                                    ; preds = %43, %.lr.ph.preheader.i33.us
  %indvars.iv.i36.us = phi i64 [ 0, %.lr.ph.preheader.i33.us ], [ %indvars.iv.next.i38.us, %43 ]
  %38 = getelementptr inbounds nuw i32, ptr %3, i64 %indvars.iv.i36.us
  %39 = load i32, ptr %38, align 4, !tbaa !7
  %40 = getelementptr inbounds nuw i32, ptr %.060.us, i64 %indvars.iv.i36.us
  %41 = load i32, ptr %40, align 4, !tbaa !7
  %.not.i37.us = icmp eq i32 %39, %41
  br i1 %.not.i37.us, label %43, label %Ses_StoreTimesEqual.exit.us

Ses_StoreTimesEqual.exit.us:                      ; preds = %.lr.ph.i35.us
  %42 = getelementptr inbounds nuw i8, ptr %.060.us, i64 40
  %.0.us = load ptr, ptr %42, align 8, !tbaa !20
  %.not22.us = icmp eq ptr %.0.us, null
  br i1 %.not22.us, label %.critedge, label %.lr.ph.preheader.i33.us, !llvm.loop !54

43:                                               ; preds = %.lr.ph.i35.us
  %indvars.iv.next.i38.us = add nuw nsw i64 %indvars.iv.i36.us, 1
  %exitcond.not.i39.us = icmp eq i64 %indvars.iv.next.i38.us, %wide.trip.count.i34
  br i1 %exitcond.not.i39.us, label %.loopexit, label %.lr.ph.i35.us, !llvm.loop !22

.loopexit:                                        ; preds = %43, %.lr.ph61
  %.050 = phi ptr [ %.058, %.lr.ph61 ], [ %.060.us, %43 ]
  %44 = getelementptr inbounds nuw i8, ptr %.050, i64 48
  %45 = load ptr, ptr %44, align 8, !tbaa !23
  store ptr %45, ptr %4, align 8, !tbaa !55
  br label %.critedge

.critedge:                                        ; preds = %34, %.loopexit45.us, %Ses_StoreTimesEqual.exit.us, %Ses_StoreTableHash.exit.thread, %Ses_StoreTableHash.exit, %Ses_StoreTruthEqual.exit, %.loopexit
  %.020 = phi i32 [ 1, %.loopexit ], [ 0, %Ses_StoreTruthEqual.exit ], [ 0, %Ses_StoreTableHash.exit ], [ 0, %Ses_StoreTableHash.exit.thread ], [ 0, %Ses_StoreTimesEqual.exit.us ], [ 0, %.loopexit45.us ], [ 0, %34 ]
  ret i32 %.020
}